
Allocating common symbols
Common symbol       size              file

g_cursor_x          0x4               crt0.o
modifier_found      0x4               crt0.o
peekSymbol          0x4               crt0.o
CurrentWindow       0x4               crt0.o
lexer_lastline      0x4               crt0.o
current_keyword     0x4               crt0.o
stack_count         0x4               crt0.o
stdout              0x4               crt0.o
next_index          0x4               crt0.o
DATA                0x200             crt0.o
program_bss_address
                    0x4               crt0.o
brace_count         0x4               crt0.o
brace_end           0x4               crt0.o
mm_prev_pointer     0x4               stdlib.o
program             0x10              crt0.o
mmblockList         0x400             stdlib.o
last_valid          0x4               stdlib.o
heapList            0x400             crt0.o
string_flag         0x4               crt0.o
libcHeap            0x4               crt0.o
lexer_token_count   0x4               crt0.o
errno               0x4               unistd.o
type_found          0x4               crt0.o
parentheses_start   0x4               crt0.o
separator_count     0x4               crt0.o
g_char_attrib       0x4               crt0.o
g_rows              0x4               crt0.o
dialogbox_button2   0x4               api.o
return_info         0x20              crt0.o
stack_flag          0x4               crt0.o
Streams             0x80              crt0.o
lexer_lineno        0x4               crt0.o
current_constant    0x4               crt0.o
temp_filename_length
                    0x4               crt0.o
lexer_code          0x4               crt0.o
messagebox_button1  0x4               api.o
constant_base_found
                    0x4               crt0.o
g_using_gui         0x4               crt0.o
constant_aftes      0x2               crt0.o
peekChar            0x4               crt0.o
lexer_firstline     0x4               crt0.o
ApplicationInfo     0x4               crt0.o
qualifier_found     0x4               crt0.o
randseed            0x4               stdlib.o
infile_size         0x4               crt0.o
stack               0x200             crt0.o
file_s              0x200             crt0.o
current_identifier  0x4               crt0.o
heap_start          0x4               crt0.o
STRINGLIST          0x140             crt0.o
asm_flag            0x4               crt0.o
prompt_out          0x400             crt0.o
id                  0x20              crt0.o
return_found        0x4               crt0.o
BufferInfo          0x4               crt0.o
BSS                 0x200             crt0.o
special_count       0x4               crt0.o
keyword_count       0x4               crt0.o
current_special     0x4               crt0.o
file_i              0x200             crt0.o
g_available_heap    0x4               crt0.o
g_heap_pointer      0x4               crt0.o
current_separator   0x4               crt0.o
current_string      0x4               crt0.o
current_token       0x4               crt0.o
parentheses_count   0x4               crt0.o
g_columns           0x4               crt0.o
HEAP_SIZE           0x4               crt0.o
outfile_size        0x4               crt0.o
dialogbox_button1   0x4               api.o
mmblockCount        0x4               stdlib.o
prompt_pos          0x4               crt0.o
stdin               0x4               crt0.o
no_output           0x4               main.o
last_size           0x4               stdlib.o
prompt_status       0x4               crt0.o
outfile             0x200             crt0.o
string_count        0x4               crt0.o
POS_BUFFER          0x80              tree.o
constant            0x20              crt0.o
constant_word       0x4               crt0.o
parentheses_end     0x4               crt0.o
prompt_err          0x400             crt0.o
function_main_buffer
                    0x200             crt0.o
current_type        0x4               crt0.o
IDENTIFIERLIST      0x140             crt0.o
identifier_count    0x4               crt0.o
main_return_type    0x4               crt0.o
KEYWORDLIST         0x140             crt0.o
constant_byte       0x2               crt0.o
TOKENLIST           0x140             crt0.o
CursorInfo          0x4               crt0.o
keyword_found       0x4               crt0.o
number_of_tokens    0x4               crt0.o
brace_start         0x4               crt0.o
heap_end            0x4               crt0.o
eofno               0x4               crt0.o
CONSTANTLIST        0x140             crt0.o
temp_file_queue     0x4               crt0.o
SPECIALLIST         0x140             crt0.o
SEPARATORLIST       0x140             crt0.o
function_main       0x4               crt0.o
program_data_address
                    0x4               crt0.o
stderr              0x4               crt0.o
infile              0x200             crt0.o
current_index       0x4               crt0.o
finput              0x4               crt0.o
prompt              0x400             crt0.o
HEAP_END            0x4               crt0.o
functionList        0x80              crt0.o
rect                0x4               crt0.o
compiler_name       0x4               main.o
directive_fould     0x4               crt0.o
g_cursor_y          0x4               crt0.o
exp_buffer          0x80              tree.o
stack_index         0x4               crt0.o
main_found          0x4               crt0.o
ClientAreaInfo      0x4               crt0.o
messagebox_button2  0x4               api.o
function_return_type
                    0x4               crt0.o
Heap                0x4               crt0.o
constant_dword      0x8               crt0.o
real_token_buffer   0x100             crt0.o
current_semaphore   0x4               crt0.o
constant_type_found
                    0x4               crt0.o
return_index        0x4               crt0.o
temp_filename       0x4               crt0.o
prompt_max          0x4               crt0.o
current_mmblock     0x4               stdlib.o
program_text_address
                    0x4               crt0.o
heapCount           0x4               crt0.o
program_header_address
                    0x4               crt0.o
constant_before     0x2               crt0.o
HEAP_START          0x4               crt0.o
constant_count      0x4               crt0.o
lineno              0x4               crt0.o

Memory Configuration

Name             Origin             Length             Attributes
*default*        0x0000000000000000 0xffffffffffffffff

Linker script and memory map


.text           0x0000000000401000     0xa000
                0x0000000000401000                code = .
                0x0000000000401000                _code = .
                0x0000000000401000                __code = .
 *(.head_x86)
 *(.text)
 .text          0x0000000000401000      0x1e7 crt0.o
                0x0000000000401000                crt0
 .text          0x00000000004011e7      0x904 main.o
                0x00000000004011e7                gramc_main
                0x00000000004011ed                mainTextEditor
                0x00000000004013ef                editorClearScreen
                0x0000000000401468                create_tokenlist
                0x00000000004014f7                fncc_print_tokenList
                0x000000000040156d                gramcInitialize
                0x000000000040177f                debugShowStat
                0x0000000000401893                main
 .text          0x0000000000401aeb        0x0 ctype.o
 .text          0x0000000000401aeb     0x105e stdlib.o
                0x0000000000401b08                rtGetHeapStart
                0x0000000000401b12                rtGetHeapEnd
                0x0000000000401b1c                rtGetHeapPointer
                0x0000000000401b26                rtGetAvailableHeap
                0x0000000000401b30                heapSetLibcHeap
                0x0000000000401be3                heapAllocateMemory
                0x0000000000401e15                FreeHeap
                0x0000000000401e1f                heapInit
                0x0000000000401fb2                stdlibInitMM
                0x0000000000402015                libcInitRT
                0x0000000000402037                rand
                0x0000000000402054                srand
                0x0000000000402062                xmalloc
                0x0000000000402094                stdlib_die
                0x00000000004020ca                malloc
                0x0000000000402106                realloc
                0x0000000000402143                free
                0x0000000000402149                calloc
                0x000000000040218f                zmalloc
                0x00000000004021cb                system
                0x000000000040258f                stdlib_strncmp
                0x00000000004025f2                __findenv
                0x00000000004026bd                getenv
                0x00000000004026ea                atoi
                0x00000000004027b1                reverse
                0x0000000000402818                itoa
                0x00000000004028c6                abs
                0x00000000004028d6                strtod
                0x0000000000402b08                strtof
                0x0000000000402b24                strtold
                0x0000000000402b37                atof
 .text          0x0000000000402b49     0x25c4 stdio.o
                0x0000000000402b91                stdio_atoi
                0x0000000000402c58                stdio_fntos
                0x0000000000402d82                fclose
                0x0000000000402da3                fopen
                0x0000000000402dc4                scroll
                0x0000000000402e91                puts
                0x0000000000402eac                fread
                0x0000000000402ecd                fwrite
                0x00000000004032af                printf3
                0x00000000004032cc                printf_atoi
                0x00000000004033bc                printf_i2hex
                0x000000000040341e                printf2
                0x00000000004035a3                sprintf
                0x00000000004035f8                putchar
                0x0000000000403619                outbyte
                0x00000000004037d7                _outbyte
                0x0000000000403806                input
                0x000000000040395a                getchar
                0x0000000000403988                stdioInitialize
                0x0000000000403b8a                fflush
                0x0000000000403bab                fprintf
                0x0000000000403bcc                fputs
                0x0000000000403bed                gets
                0x0000000000403c78                ungetc
                0x0000000000403c82                ftell
                0x0000000000403ca3                fileno
                0x0000000000403cad                fgetc
                0x0000000000403cce                feof
                0x0000000000403cef                ferror
                0x0000000000403d10                fseek
                0x0000000000403d31                fputc
                0x0000000000403d52                stdioSetCursor
                0x0000000000403d6d                stdioGetCursorX
                0x0000000000403d88                stdioGetCursorY
                0x0000000000403da3                scanf
                0x0000000000403f3d                sscanf
                0x00000000004040f8                kvprintf
                0x0000000000404f62                printf
                0x0000000000404f8c                vfprintf
                0x0000000000405004                vprintf
                0x0000000000405023                stdout_printf
                0x000000000040504f                stderr_printf
                0x000000000040507b                perror
                0x0000000000405092                rewind
                0x00000000004050ce                snprintf
                0x00000000004050e2                stdio_initialize_standard_streams
 .text          0x000000000040510d      0x772 string.o
                0x000000000040510d                memcmp
                0x0000000000405172                strdup
                0x00000000004051c4                strndup
                0x0000000000405225                strrchr
                0x0000000000405260                strtoimax
                0x000000000040526a                strtoumax
                0x0000000000405274                strcasecmp
                0x00000000004052dc                strncpy
                0x0000000000405332                strcmp
                0x0000000000405397                strncmp
                0x00000000004053fa                memset
                0x0000000000405441                memoryZeroMemory
                0x0000000000405468                memcpy
                0x00000000004054a5                strcpy
                0x00000000004054d9                strcat
                0x0000000000405508                bcopy
                0x0000000000405534                bzero
                0x0000000000405554                strlen
                0x0000000000405582                strnlen
                0x00000000004055b6                strcspn
                0x0000000000405655                strspn
                0x00000000004056f4                strtok_r
                0x00000000004057db                strtok
                0x00000000004057f3                strchr
                0x000000000040581f                strstr
 .text          0x000000000040587f      0x301 unistd.o
                0x000000000040587f                execve
                0x00000000004058de                exit
                0x00000000004058fe                fork
                0x0000000000405934                sys_fork
                0x000000000040596a                fast_fork
                0x0000000000405992                setuid
                0x00000000004059ad                getuid
                0x00000000004059c8                geteuid
                0x00000000004059d2                getpid
                0x00000000004059ea                getppid
                0x0000000000405a02                getgid
                0x0000000000405a1d                dup
                0x0000000000405a37                dup2
                0x0000000000405a53                dup3
                0x0000000000405a71                fcntl
                0x0000000000405a7b                nice
                0x0000000000405a85                pause
                0x0000000000405a8f                mkdir
                0x0000000000405aa3                rmdir
                0x0000000000405aad                link
                0x0000000000405ab7                mlock
                0x0000000000405ac1                munlock
                0x0000000000405acb                mlockall
                0x0000000000405ad5                munlockall
                0x0000000000405adf                sysconf
                0x0000000000405ae9                fsync
                0x0000000000405af3                fdatasync
                0x0000000000405afd                fpathconf
                0x0000000000405b07                pathconf
                0x0000000000405b11                ioctl
                0x0000000000405b1b                open
                0x0000000000405b41                close
                0x0000000000405b5f                pipe
 .text          0x0000000000405b80     0x213a api.o
                0x0000000000405b80                system_call
                0x0000000000405ba8                apiSystem
                0x0000000000405fb0                system1
                0x0000000000405fd1                system2
                0x0000000000405ff2                system3
                0x0000000000406013                system4
                0x0000000000406034                system5
                0x0000000000406055                system6
                0x0000000000406076                system7
                0x0000000000406097                system8
                0x00000000004060b8                system9
                0x00000000004060d9                system10
                0x00000000004060fa                system11
                0x000000000040611b                system12
                0x000000000040613c                system13
                0x000000000040615d                system14
                0x000000000040617e                system15
                0x000000000040619f                refresh_buffer
                0x000000000040627b                print_string
                0x0000000000406281                vsync
                0x0000000000406296                edit_box
                0x00000000004062ad                gde_system_procedure
                0x00000000004062e3                SetNextWindowProcedure
                0x00000000004062ed                set_cursor
                0x0000000000406304                put_char
                0x000000000040630a                gde_load_bitmap_16x16
                0x0000000000406323                apiShutDown
                0x000000000040633a                apiInitBackground
                0x0000000000406340                MessageBox
                0x00000000004068cc                mbProcedure
                0x000000000040693a                DialogBox
                0x0000000000406cea                dbProcedure
                0x0000000000406d58                call_kernel
                0x0000000000406ed3                call_gui
                0x0000000000406f5f                gde_create_window
                0x0000000000406fd8                gde_register_window
                0x0000000000407000                gde_close_window
                0x0000000000407028                gde_set_focus
                0x0000000000407050                gde_get_focus
                0x0000000000407065                APIKillFocus
                0x000000000040708d                APISetActiveWindow
                0x00000000004070b5                APIGetActiveWindow
                0x00000000004070ca                APIShowCurrentProcessInfo
                0x00000000004070e0                APIresize_window
                0x00000000004070fa                APIredraw_window
                0x0000000000407114                APIreplace_window
                0x000000000040712e                APImaximize_window
                0x000000000040714a                APIminimize_window
                0x0000000000407166                APIupdate_window
                0x0000000000407182                APIget_foregroung_window
                0x0000000000407198                APIset_foregroung_window
                0x00000000004071b4                apiExit
                0x00000000004071d1                kill
                0x00000000004071d7                dead_thread_collector
                0x00000000004071ed                api_strncmp
                0x0000000000407250                refresh_screen
                0x0000000000407266                api_refresh_screen
                0x0000000000407271                apiReboot
                0x0000000000407287                apiSetCursor
                0x000000000040729f                apiGetCursorX
                0x00000000004072b7                apiGetCursorY
                0x00000000004072cf                apiGetClientAreaRect
                0x00000000004072e7                apiSetClientAreaRect
                0x0000000000407306                gde_create_process
                0x000000000040731f                gde_create_thread
                0x0000000000407338                apiStartThread
                0x0000000000407354                apiFOpen
                0x0000000000407380                gde_save_file
                0x00000000004073d3                apiDown
                0x0000000000407428                apiUp
                0x000000000040747d                enterCriticalSection
                0x00000000004074b8                exitCriticalSection
                0x00000000004074d1                initializeCriticalSection
                0x00000000004074ea                gde_begin_paint
                0x00000000004074f5                gde_end_paint
                0x0000000000407500                apiPutChar
                0x000000000040751c                apiDefDialog
                0x0000000000407526                apiGetSystemMetrics
                0x0000000000407544                api_set_current_keyboard_responder
                0x0000000000407563                api_get_current_keyboard_responder
                0x000000000040757b                api_set_current_mouse_responder
                0x000000000040759a                api_get_current_mouse_responder
                0x00000000004075b2                api_set_window_with_text_input
                0x00000000004075f4                api_get_window_with_text_input
                0x000000000040760c                gramadocore_init_execve
                0x0000000000407616                apiDialog
                0x00000000004076a5                api_getchar
                0x00000000004076bd                apiDisplayBMP
                0x0000000000407ac4                apiSendMessageToProcess
                0x0000000000407b07                apiSendMessageToThread
                0x0000000000407b4a                apiSendMessage
                0x0000000000407b80                apiDrawText
                0x0000000000407bbf                apiGetWSScreenWindow
                0x0000000000407bd7                apiGetWSMainWindow
                0x0000000000407bef                apiCreateTimer
                0x0000000000407c0c                apiGetSysTimeInfo
                0x0000000000407c2a                apiShowWindow
                0x0000000000407c46                apiStartTerminal
 .text          0x0000000000407cba      0xb08 lexer.o
                0x0000000000407cd7                skip_white_space
                0x0000000000407e6e                yylex
                0x0000000000408717                lexerInit
                0x00000000004087a6                error
 .text          0x00000000004087c2     0x1161 parser.o
                0x00000000004087c2                parse_sizeof
                0x000000000040897a                parse_expression
                0x00000000004089cf                parse_asm
                0x0000000000408b67                parse_function
                0x0000000000408d04                parse_return
                0x0000000000408df0                parse_if
                0x0000000000408ef5                parse_while
                0x0000000000408ffa                parse_do
                0x000000000040902a                parse_for
                0x000000000040905a                parse
                0x0000000000409850                parserInit
 .text          0x0000000000409923      0x89b tree.o
                0x0000000000409923                my_isdigit
                0x0000000000409949                newNode
                0x0000000000409982                inorder
                0x00000000004099cb                exibirEmOrdem
                0x0000000000409a14                exibirPreOrdem
                0x0000000000409a5d                exibirPosOrdem
                0x0000000000409aef                insert
                0x0000000000409b60                bst_main
                0x0000000000409d64                push
                0x0000000000409da4                pop
                0x0000000000409de1                oper
                0x0000000000409e49                eval
                0x0000000000409f2e                testtest_main
                0x0000000000409f46                tree_eval
 .text          0x000000000040a1be       0x28 stubs.o
                0x000000000040a1be                gramado_system_call
                0x000000000040b000                . = ALIGN (0x1000)
 *fill*         0x000000000040a1e6      0xe1a 

.iplt           0x000000000040b000        0x0
 .iplt          0x000000000040b000        0x0 crt0.o

.rodata         0x000000000040b000     0x25f8
 .rodata        0x000000000040b000      0x193 crt0.o
 *fill*         0x000000000040b193        0x1 
 .rodata        0x000000000040b194      0x475 main.o
 *fill*         0x000000000040b609       0x17 
 .rodata        0x000000000040b620      0x100 ctype.o
                0x000000000040b620                _ctype
 .rodata        0x000000000040b720      0x510 stdlib.o
 *fill*         0x000000000040bc30       0x10 
 .rodata        0x000000000040bc40      0x2f4 stdio.o
                0x000000000040bda0                hex2ascii_data
 .rodata        0x000000000040bf34       0x3a unistd.o
 *fill*         0x000000000040bf6e        0x2 
 .rodata        0x000000000040bf70      0x3f1 api.o
 *fill*         0x000000000040c361        0x3 
 .rodata        0x000000000040c364      0x5d3 lexer.o
 *fill*         0x000000000040c937        0x1 
 .rodata        0x000000000040c938      0x8cd parser.o
 *fill*         0x000000000040d205        0x3 
 .rodata        0x000000000040d208      0x3f0 tree.o

.eh_frame       0x000000000040d5f8     0x2438
 .eh_frame      0x000000000040d5f8       0x38 crt0.o
 .eh_frame      0x000000000040d630      0x11c main.o
                                        0x134 (size before relaxing)
 .eh_frame      0x000000000040d74c      0x400 stdlib.o
                                        0x418 (size before relaxing)
 .eh_frame      0x000000000040db4c      0x710 stdio.o
                                        0x728 (size before relaxing)
 .eh_frame      0x000000000040e25c      0x320 string.o
                                        0x338 (size before relaxing)
 .eh_frame      0x000000000040e57c      0x420 unistd.o
                                        0x438 (size before relaxing)
 .eh_frame      0x000000000040e99c      0xc8c api.o
                                        0xca4 (size before relaxing)
 .eh_frame      0x000000000040f628       0xbc lexer.o
                                         0xd4 (size before relaxing)
 .eh_frame      0x000000000040f6e4      0x168 parser.o
                                        0x180 (size before relaxing)
 .eh_frame      0x000000000040f84c      0x1c0 tree.o
                                        0x1d8 (size before relaxing)
 .eh_frame      0x000000000040fa0c       0x24 stubs.o
                                         0x3c (size before relaxing)

.rel.dyn        0x000000000040fa30        0x0
 .rel.got       0x000000000040fa30        0x0 crt0.o
 .rel.iplt      0x000000000040fa30        0x0 crt0.o
 .rel.text      0x000000000040fa30        0x0 crt0.o

.data           0x000000000040fa40     0x25c0
                0x000000000040fa40                data = .
                0x000000000040fa40                _data = .
                0x000000000040fa40                __data = .
 *(.data)
 .data          0x000000000040fa40      0x4e4 crt0.o
 *fill*         0x000000000040ff24       0x1c 
 .data          0x000000000040ff40      0x558 main.o
                0x0000000000410440                copyright
                0x0000000000410478                program_name
                0x0000000000410490                standard_spec
                0x0000000000410494                running
 .data          0x0000000000410498        0x0 ctype.o
 .data          0x0000000000410498        0x8 stdlib.o
                0x0000000000410498                _infinity
 .data          0x00000000004104a0        0x0 stdio.o
 .data          0x00000000004104a0        0x0 string.o
 .data          0x00000000004104a0        0x0 unistd.o
 .data          0x00000000004104a0      0x440 api.o
 .data          0x00000000004108e0      0x4e4 lexer.o
 *fill*         0x0000000000410dc4       0x1c 
 .data          0x0000000000410de0      0x4e4 parser.o
 *fill*         0x00000000004112c4       0x1c 
 .data          0x00000000004112e0      0x4e4 tree.o
 .data          0x00000000004117c4        0x0 stubs.o
                0x0000000000412000                . = ALIGN (0x1000)
 *fill*         0x00000000004117c4      0x83c 

.got            0x0000000000412000        0x0
 .got           0x0000000000412000        0x0 crt0.o

.got.plt        0x0000000000412000        0x0
 .got.plt       0x0000000000412000        0x0 crt0.o

.igot.plt       0x0000000000412000        0x0
 .igot.plt      0x0000000000412000        0x0 crt0.o

.bss            0x0000000000412000    0x3c3e0
                0x0000000000412000                bss = .
                0x0000000000412000                _bss = .
                0x0000000000412000                __bss = .
 *(.bss)
 .bss           0x0000000000412000     0x8008 crt0.o
 *fill*         0x000000000041a008       0x18 
 .bss           0x000000000041a020     0x8008 main.o
 .bss           0x0000000000422028        0x0 ctype.o
 *fill*         0x0000000000422028       0x18 
 .bss           0x0000000000422040     0x8020 stdlib.o
                0x0000000000422040                environ
 .bss           0x000000000042a060        0x1 stdio.o
 *fill*         0x000000000042a061        0x3 
 .bss           0x000000000042a064        0x4 string.o
 .bss           0x000000000042a068        0x0 unistd.o
 *fill*         0x000000000042a068       0x18 
 .bss           0x000000000042a080     0x8004 api.o
 *fill*         0x0000000000432084       0x1c 
 .bss           0x00000000004320a0     0x8008 lexer.o
 *fill*         0x000000000043a0a8       0x18 
 .bss           0x000000000043a0c0     0x8008 parser.o
 *fill*         0x00000000004420c8       0x18 
 .bss           0x00000000004420e0     0x8028 tree.o
                0x00000000004420e0                exp_offset
                0x00000000004420e4                buffer_offset
 .bss           0x000000000044a108        0x0 stubs.o
                0x000000000044b000                . = ALIGN (0x1000)
 *fill*         0x000000000044a108      0xef8 
 COMMON         0x000000000044b000     0x2e70 crt0.o
                0x000000000044b000                g_cursor_x
                0x000000000044b004                modifier_found
                0x000000000044b008                peekSymbol
                0x000000000044b00c                CurrentWindow
                0x000000000044b010                lexer_lastline
                0x000000000044b014                current_keyword
                0x000000000044b018                stack_count
                0x000000000044b01c                stdout
                0x000000000044b020                next_index
                0x000000000044b040                DATA
                0x000000000044b240                program_bss_address
                0x000000000044b244                brace_count
                0x000000000044b248                brace_end
                0x000000000044b24c                program
                0x000000000044b260                heapList
                0x000000000044b660                string_flag
                0x000000000044b664                libcHeap
                0x000000000044b668                lexer_token_count
                0x000000000044b66c                type_found
                0x000000000044b670                parentheses_start
                0x000000000044b674                separator_count
                0x000000000044b678                g_char_attrib
                0x000000000044b67c                g_rows
                0x000000000044b680                return_info
                0x000000000044b6a0                stack_flag
                0x000000000044b6c0                Streams
                0x000000000044b740                lexer_lineno
                0x000000000044b744                current_constant
                0x000000000044b748                temp_filename_length
                0x000000000044b74c                lexer_code
                0x000000000044b750                constant_base_found
                0x000000000044b754                g_using_gui
                0x000000000044b758                constant_aftes
                0x000000000044b75c                peekChar
                0x000000000044b760                lexer_firstline
                0x000000000044b764                ApplicationInfo
                0x000000000044b768                qualifier_found
                0x000000000044b76c                infile_size
                0x000000000044b780                stack
                0x000000000044b980                file_s
                0x000000000044bb80                current_identifier
                0x000000000044bb84                heap_start
                0x000000000044bba0                STRINGLIST
                0x000000000044bce0                asm_flag
                0x000000000044bd00                prompt_out
                0x000000000044c100                id
                0x000000000044c120                return_found
                0x000000000044c124                BufferInfo
                0x000000000044c140                BSS
                0x000000000044c340                special_count
                0x000000000044c344                keyword_count
                0x000000000044c348                current_special
                0x000000000044c360                file_i
                0x000000000044c560                g_available_heap
                0x000000000044c564                g_heap_pointer
                0x000000000044c568                current_separator
                0x000000000044c56c                current_string
                0x000000000044c570                current_token
                0x000000000044c574                parentheses_count
                0x000000000044c578                g_columns
                0x000000000044c57c                HEAP_SIZE
                0x000000000044c580                outfile_size
                0x000000000044c584                prompt_pos
                0x000000000044c588                stdin
                0x000000000044c58c                prompt_status
                0x000000000044c5a0                outfile
                0x000000000044c7a0                string_count
                0x000000000044c7c0                constant
                0x000000000044c7e0                constant_word
                0x000000000044c7e4                parentheses_end
                0x000000000044c800                prompt_err
                0x000000000044cc00                function_main_buffer
                0x000000000044ce00                current_type
                0x000000000044ce20                IDENTIFIERLIST
                0x000000000044cf60                identifier_count
                0x000000000044cf64                main_return_type
                0x000000000044cf80                KEYWORDLIST
                0x000000000044d0c0                constant_byte
                0x000000000044d0e0                TOKENLIST
                0x000000000044d220                CursorInfo
                0x000000000044d224                keyword_found
                0x000000000044d228                number_of_tokens
                0x000000000044d22c                brace_start
                0x000000000044d230                heap_end
                0x000000000044d234                eofno
                0x000000000044d240                CONSTANTLIST
                0x000000000044d380                temp_file_queue
                0x000000000044d3a0                SPECIALLIST
                0x000000000044d4e0                SEPARATORLIST
                0x000000000044d620                function_main
                0x000000000044d624                program_data_address
                0x000000000044d628                stderr
                0x000000000044d640                infile
                0x000000000044d840                current_index
                0x000000000044d844                finput
                0x000000000044d860                prompt
                0x000000000044dc60                HEAP_END
                0x000000000044dc80                functionList
                0x000000000044dd00                rect
                0x000000000044dd04                directive_fould
                0x000000000044dd08                g_cursor_y
                0x000000000044dd0c                stack_index
                0x000000000044dd10                main_found
                0x000000000044dd14                ClientAreaInfo
                0x000000000044dd18                function_return_type
                0x000000000044dd1c                Heap
                0x000000000044dd20                constant_dword
                0x000000000044dd40                real_token_buffer
                0x000000000044de40                current_semaphore
                0x000000000044de44                constant_type_found
                0x000000000044de48                return_index
                0x000000000044de4c                temp_filename
                0x000000000044de50                prompt_max
                0x000000000044de54                program_text_address
                0x000000000044de58                heapCount
                0x000000000044de5c                program_header_address
                0x000000000044de60                constant_before
                0x000000000044de64                HEAP_START
                0x000000000044de68                constant_count
                0x000000000044de6c                lineno
 COMMON         0x000000000044de70        0x8 main.o
                0x000000000044de70                no_output
                0x000000000044de74                compiler_name
 *fill*         0x000000000044de78        0x8 
 COMMON         0x000000000044de80      0x434 stdlib.o
                0x000000000044de80                mm_prev_pointer
                0x000000000044dea0                mmblockList
                0x000000000044e2a0                last_valid
                0x000000000044e2a4                randseed
                0x000000000044e2a8                mmblockCount
                0x000000000044e2ac                last_size
                0x000000000044e2b0                current_mmblock
 COMMON         0x000000000044e2b4        0x4 unistd.o
                0x000000000044e2b4                errno
 COMMON         0x000000000044e2b8       0x10 api.o
                0x000000000044e2b8                dialogbox_button2
                0x000000000044e2bc                messagebox_button1
                0x000000000044e2c0                dialogbox_button1
                0x000000000044e2c4                messagebox_button2
 *fill*         0x000000000044e2c8       0x18 
 COMMON         0x000000000044e2e0      0x100 tree.o
                0x000000000044e2e0                POS_BUFFER
                0x000000000044e360                exp_buffer
                0x000000000044e3e0                end = .
                0x000000000044e3e0                _end = .
                0x000000000044e3e0                __end = .
LOAD crt0.o
LOAD main.o
LOAD ctype.o
LOAD stdlib.o
LOAD stdio.o
LOAD string.o
LOAD unistd.o
LOAD api.o
LOAD lexer.o
LOAD parser.o
LOAD tree.o
LOAD stubs.o
OUTPUT(GRAMC.BIN elf32-i386)

.comment        0x0000000000000000       0x11
 .comment       0x0000000000000000       0x11 crt0.o
                                         0x12 (size before relaxing)
 .comment       0x0000000000000011       0x12 main.o
 .comment       0x0000000000000011       0x12 ctype.o
 .comment       0x0000000000000011       0x12 stdlib.o
 .comment       0x0000000000000011       0x12 stdio.o
 .comment       0x0000000000000011       0x12 string.o
 .comment       0x0000000000000011       0x12 unistd.o
 .comment       0x0000000000000011       0x12 api.o
 .comment       0x0000000000000011       0x12 lexer.o
 .comment       0x0000000000000011       0x12 parser.o
 .comment       0x0000000000000011       0x12 tree.o
 .comment       0x0000000000000011       0x12 stubs.o

.note.GNU-stack
                0x0000000000000000        0x0
 .note.GNU-stack
                0x0000000000000000        0x0 crt0.o
 .note.GNU-stack
                0x0000000000000000        0x0 main.o
 .note.GNU-stack
                0x0000000000000000        0x0 ctype.o
 .note.GNU-stack
                0x0000000000000000        0x0 stdlib.o
 .note.GNU-stack
                0x0000000000000000        0x0 stdio.o
 .note.GNU-stack
                0x0000000000000000        0x0 string.o
 .note.GNU-stack
                0x0000000000000000        0x0 unistd.o
 .note.GNU-stack
                0x0000000000000000        0x0 api.o
 .note.GNU-stack
                0x0000000000000000        0x0 lexer.o
 .note.GNU-stack
                0x0000000000000000        0x0 parser.o
 .note.GNU-stack
                0x0000000000000000        0x0 tree.o
 .note.GNU-stack
                0x0000000000000000        0x0 stubs.o
